target datalayout = "e-m:e-p270:32:32-p271:32:32-p272:64:64-i64:64-i128:128-f80:128-n8:16:32:64-S128"
target triple = "x86_64-pc-linux-gnu"

%struct.tiff_t = type { ptr, i32, i32, i16, i16, i16, i32, ptr, ptr, ptr }

; Function Attrs: inlinehint nounwind uwtable
define internal i32 @_read_chunky_f(ptr noundef %0) #4 {
  %2 = alloca i32, align 4
  %3 = alloca ptr, align 8
  %4 = alloca i32, align 4
  %5 = alloca i32, align 4
  %6 = alloca ptr, align 8
  %7 = alloca ptr, align 8
  %8 = alloca i32, align 4
  store ptr %0, ptr %3, align 8, !tbaa !90
  call void @llvm.lifetime.start.p0(i64 4, ptr %4) #8
  store i32 0, ptr %4, align 4, !tbaa !86
  br label %9

9:                                                ; preds = %97, %1
  %10 = load i32, ptr %4, align 4, !tbaa !86
  %11 = load ptr, ptr %3, align 8, !tbaa !90
  %12 = getelementptr inbounds nuw %struct.tiff_t, ptr %11, i32 0, i32 2
  %13 = load i32, ptr %12, align 4, !tbaa !73
  %14 = icmp ult i32 %10, %13
  br i1 %14, label %16, label %15

15:                                               ; preds = %9
  store i32 2, ptr %5, align 4
  br label %100

16:                                               ; preds = %9
  call void @llvm.lifetime.start.p0(i64 8, ptr %6) #8
  %17 = load ptr, ptr %3, align 8, !tbaa !90
  %18 = getelementptr inbounds nuw %struct.tiff_t, ptr %17, i32 0, i32 9
  %19 = load ptr, ptr %18, align 8, !tbaa !83
  store ptr %19, ptr %6, align 8, !tbaa !95
  call void @llvm.lifetime.start.p0(i64 8, ptr %7) #8
  %20 = load ptr, ptr %3, align 8, !tbaa !90
  %21 = getelementptr inbounds nuw %struct.tiff_t, ptr %20, i32 0, i32 8
  %22 = load ptr, ptr %21, align 8, !tbaa !82
  %23 = load i32, ptr %4, align 4, !tbaa !86
  %24 = zext i32 %23 to i64
  %25 = mul i64 4, %24
  %26 = load ptr, ptr %3, align 8, !tbaa !90
  %27 = getelementptr inbounds nuw %struct.tiff_t, ptr %26, i32 0, i32 1
  %28 = load i32, ptr %27, align 8, !tbaa !72
  %29 = zext i32 %28 to i64
  %30 = mul i64 %25, %29
  %31 = getelementptr inbounds nuw float, ptr %22, i64 %30
  store ptr %31, ptr %7, align 8, !tbaa !95
  %32 = load ptr, ptr %3, align 8, !tbaa !90
  %33 = getelementptr inbounds nuw %struct.tiff_t, ptr %32, i32 0, i32 0
  %34 = load ptr, ptr %33, align 8, !tbaa !35
  %35 = load ptr, ptr %6, align 8, !tbaa !95
  %36 = load i32, ptr %4, align 4, !tbaa !86
  %37 = call i32 @TIFFReadScanline(ptr noundef %34, ptr noundef %35, i32 noundef %36, i16 noundef zeroext 0)
  %38 = icmp eq i32 %37, -1
  br i1 %38, label %39, label %40

39:                                               ; preds = %16
  store i32 -1, ptr %2, align 4
  store i32 1, ptr %5, align 4
  br label %94

40:                                               ; preds = %16
  call void @llvm.lifetime.start.p0(i64 4, ptr %8) #8
  store i32 0, ptr %8, align 4, !tbaa !86
  br label %41

41:                                               ; preds = %81, %40
  %42 = load i32, ptr %8, align 4, !tbaa !86
  %43 = load ptr, ptr %3, align 8, !tbaa !90
  %44 = getelementptr inbounds nuw %struct.tiff_t, ptr %43, i32 0, i32 1
  %45 = load i32, ptr %44, align 8, !tbaa !72
  %46 = icmp ult i32 %42, %45
  br i1 %46, label %48, label %47

47:                                               ; preds = %41
  store i32 5, ptr %5, align 4
  call void @llvm.lifetime.end.p0(i64 4, ptr %8) #8
  br label %93

48:                                               ; preds = %41
  %49 = load ptr, ptr %6, align 8, !tbaa !95
  %50 = getelementptr inbounds float, ptr %49, i64 0
  %51 = load float, ptr %50, align 4, !tbaa !96
  %52 = load ptr, ptr %7, align 8, !tbaa !95
  %53 = getelementptr inbounds float, ptr %52, i64 0
  store float %51, ptr %53, align 4, !tbaa !96
  %54 = load ptr, ptr %3, align 8, !tbaa !90
  %55 = getelementptr inbounds nuw %struct.tiff_t, ptr %54, i32 0, i32 4
  %56 = load i16, ptr %55, align 2, !tbaa !75
  %57 = zext i16 %56 to i32
  %58 = icmp slt i32 %57, 3
  br i1 %58, label %59, label %67

59:                                               ; preds = %48
  %60 = load ptr, ptr %7, align 8, !tbaa !95
  %61 = getelementptr inbounds float, ptr %60, i64 0
  %62 = load float, ptr %61, align 4, !tbaa !96
  %63 = load ptr, ptr %7, align 8, !tbaa !95
  %64 = getelementptr inbounds float, ptr %63, i64 2
  store float %62, ptr %64, align 4, !tbaa !96
  %65 = load ptr, ptr %7, align 8, !tbaa !95
  %66 = getelementptr inbounds float, ptr %65, i64 1
  store float %62, ptr %66, align 4, !tbaa !96
  br label %78

67:                                               ; preds = %48
  %68 = load ptr, ptr %6, align 8, !tbaa !95
  %69 = getelementptr inbounds float, ptr %68, i64 1
  %70 = load float, ptr %69, align 4, !tbaa !96
  %71 = load ptr, ptr %7, align 8, !tbaa !95
  %72 = getelementptr inbounds float, ptr %71, i64 1
  store float %70, ptr %72, align 4, !tbaa !96
  %73 = load ptr, ptr %6, align 8, !tbaa !95
  %74 = getelementptr inbounds float, ptr %73, i64 2
  %75 = load float, ptr %74, align 4, !tbaa !96
  %76 = load ptr, ptr %7, align 8, !tbaa !95
  %77 = getelementptr inbounds float, ptr %76, i64 2
  store float %75, ptr %77, align 4, !tbaa !96
  br label %78

78:                                               ; preds = %67, %59
  %79 = load ptr, ptr %7, align 8, !tbaa !95
  %80 = getelementptr inbounds float, ptr %79, i64 3
  store float 0.000000e+00, ptr %80, align 4, !tbaa !96
  br label %81

81:                                               ; preds = %78
  %82 = load i32, ptr %8, align 4, !tbaa !86
  %83 = add i32 %82, 1
  store i32 %83, ptr %8, align 4, !tbaa !86
  %84 = load ptr, ptr %3, align 8, !tbaa !90
  %85 = getelementptr inbounds nuw %struct.tiff_t, ptr %84, i32 0, i32 4
  %86 = load i16, ptr %85, align 2, !tbaa !75
  %87 = zext i16 %86 to i32
  %88 = load ptr, ptr %6, align 8, !tbaa !95
  %89 = sext i32 %87 to i64
  %90 = getelementptr inbounds float, ptr %88, i64 %89
  store ptr %90, ptr %6, align 8, !tbaa !95
  %91 = load ptr, ptr %7, align 8, !tbaa !95
  %92 = getelementptr inbounds float, ptr %91, i64 4
  store ptr %92, ptr %7, align 8, !tbaa !95
  br label %41

93:                                               ; preds = %47
  store i32 0, ptr %5, align 4
  br label %94

94:                                               ; preds = %93, %39
  call void @llvm.lifetime.end.p0(i64 8, ptr %7) #8
  call void @llvm.lifetime.end.p0(i64 8, ptr %6) #8
  %95 = load i32, ptr %5, align 4
  switch i32 %95, label %100 [
    i32 0, label %96
  ]

96:                                               ; preds = %94
  br label %97

97:                                               ; preds = %96
  %98 = load i32, ptr %4, align 4, !tbaa !86
  %99 = add i32 %98, 1
  store i32 %99, ptr %4, align 4, !tbaa !86
  br label %9

100:                                              ; preds = %94, %15
  call void @llvm.lifetime.end.p0(i64 4, ptr %4) #8
  %101 = load i32, ptr %5, align 4
  switch i32 %101, label %105 [
    i32 2, label %102
    i32 1, label %103
  ]

102:                                              ; preds = %100
  store i32 1, ptr %2, align 4
  br label %103

103:                                              ; preds = %102, %100
  %104 = load i32, ptr %2, align 4
  ret i32 %104

105:                                              ; preds = %100
  unreachable
}